; Function Attrs: mustprogress nofree nounwind willreturn memory(read, inaccessiblemem: none) uwtable
define noundef zeroext i1 @_ZN5arrow8internal20OptionalBitmapEqualsERKSt10shared_ptrINS_6BufferEElS5_ll(ptr noundef nonnull readonly align 8 captures(none) dereferenceable(16) %0, i64 noundef %1, ptr noundef nonnull readonly align 8 captures(none) dereferenceable(16) %2, i64 noundef %3, i64 noundef %4) local_unnamed_addr #9 {
  %6 = load ptr, ptr %0, align 8, !tbaa !42
  %.not = icmp eq ptr %6, null
  br i1 %.not, label %14, label %7

7:                                                ; preds = %5
  %8 = getelementptr inbounds nuw i8, ptr %6, i64 9
  %9 = load i8, ptr %8, align 1, !tbaa !49, !range !57, !noundef !58
  %10 = trunc nuw i8 %9 to i1
  %11 = getelementptr inbounds nuw i8, ptr %6, i64 16
  %12 = load ptr, ptr %11, align 8
  %13 = select i1 %10, ptr %12, ptr null, !prof !26
  br label %14

14:                                               ; preds = %5, %7
  %15 = phi ptr [ %13, %7 ], [ null, %5 ]
  %16 = load ptr, ptr %2, align 8, !tbaa !42
  %.not6 = icmp eq ptr %16, null
  br i1 %.not6, label %24, label %17

17:                                               ; preds = %14
  %18 = getelementptr inbounds nuw i8, ptr %16, i64 9
  %19 = load i8, ptr %18, align 1, !tbaa !49, !range !57, !noundef !58
  %20 = trunc nuw i8 %19 to i1
  %21 = getelementptr inbounds nuw i8, ptr %16, i64 16
  %22 = load ptr, ptr %21, align 8
  %23 = select i1 %20, ptr %22, ptr null, !prof !26
  br label %24

24:                                               ; preds = %14, %17
  %25 = phi ptr [ %23, %17 ], [ null, %14 ]
  %26 = icmp eq ptr %15, null
  %27 = icmp eq ptr %25, null
  %or.cond.i = and i1 %26, %27
  br i1 %or.cond.i, label %_ZN5arrow8internal20OptionalBitmapEqualsEPKhlS2_ll.exit, label %28

28:                                               ; preds = %24
  %29 = icmp ne ptr %15, null
  %30 = icmp ne ptr %25, null
  %or.cond3.i = and i1 %29, %30
  br i1 %or.cond3.i, label %31, label %33

31:                                               ; preds = %28
  %32 = tail call noundef zeroext i1 @_ZN5arrow8internal12BitmapEqualsEPKhlS2_ll(ptr noundef nonnull readonly %15, i64 noundef %1, ptr noundef nonnull readonly %25, i64 noundef %3, i64 noundef %4)
  br label %_ZN5arrow8internal20OptionalBitmapEqualsEPKhlS2_ll.exit

33:                                               ; preds = %28
  br i1 %29, label %34, label %37

34:                                               ; preds = %33
  %35 = tail call noundef i64 @_ZN5arrow8internal12CountSetBitsEPKhll(ptr noundef nonnull readonly %15, i64 noundef %1, i64 noundef %4)
  %36 = icmp eq i64 %35, %4
  br label %_ZN5arrow8internal20OptionalBitmapEqualsEPKhlS2_ll.exit

37:                                               ; preds = %33
  %38 = tail call noundef i64 @_ZN5arrow8internal12CountSetBitsEPKhll(ptr noundef readonly %25, i64 noundef %3, i64 noundef %4)
  %39 = icmp eq i64 %38, %4
  br label %_ZN5arrow8internal20OptionalBitmapEqualsEPKhlS2_ll.exit

_ZN5arrow8internal20OptionalBitmapEqualsEPKhlS2_ll.exit: ; preds = %24, %31, %34, %37
  %.0.i = phi i1 [ %32, %31 ], [ %36, %34 ], [ %39, %37 ], [ true, %24 ]
  ret i1 %.0.i
}